; Function Attrs: nounwind uwtable
define noalias noundef ptr @Acb_ReadWeightMap(ptr noundef %0, ptr noundef %1) local_unnamed_addr #0 {
  %3 = tail call i32 @Abc_NamObjNumMax(ptr noundef %1) #31
  %4 = tail call noalias dereferenceable_or_null(16) ptr @malloc(i64 noundef 16) #29
  %5 = add i32 %3, -1
  %or.cond.i.i = icmp ult i32 %5, 15
  %spec.store.select.i.i = select i1 %or.cond.i.i, i32 16, i32 %3
  %6 = getelementptr inbounds nuw i8, ptr %4, i64 4
  store i32 %spec.store.select.i.i, ptr %4, align 8
  %.not.i.i = icmp eq i32 %spec.store.select.i.i, 0
  br i1 %.not.i.i, label %Vec_IntAlloc.exit.thread.i, label %Vec_IntAlloc.exit.i

Vec_IntAlloc.exit.thread.i:                       ; preds = %2
  %7 = getelementptr inbounds nuw i8, ptr %4, i64 8
  store ptr null, ptr %7, align 8
  store i32 %3, ptr %6, align 4
  br label %Vec_IntStartFull.exit

Vec_IntAlloc.exit.i:                              ; preds = %2
  %8 = sext i32 %spec.store.select.i.i to i64
  %9 = shl nsw i64 %8, 2
  %10 = tail call noalias ptr @malloc(i64 noundef %9) #29
  %11 = getelementptr inbounds nuw i8, ptr %4, i64 8
  store ptr %10, ptr %11, align 8
  store i32 %3, ptr %6, align 4
  %.not.i = icmp eq ptr %10, null
  br i1 %.not.i, label %Vec_IntStartFull.exit, label %12

12:                                               ; preds = %Vec_IntAlloc.exit.i
  %13 = sext i32 %3 to i64
  %14 = shl nsw i64 %13, 2
  tail call void @llvm.memset.p0.i64(ptr nonnull align 4 %10, i8 -1, i64 %14, i1 false)
  br label %Vec_IntStartFull.exit

Vec_IntStartFull.exit:                            ; preds = %Vec_IntAlloc.exit.thread.i, %Vec_IntAlloc.exit.i, %12
  %.val = phi ptr [ null, %Vec_IntAlloc.exit.thread.i ], [ null, %Vec_IntAlloc.exit.i ], [ %10, %12 ]
  %15 = tail call ptr @Extra_FileReadContents(ptr noundef %0) #31
  %16 = icmp eq ptr %15, null
  br i1 %16, label %30, label %17

17:                                               ; preds = %Vec_IntStartFull.exit
  %18 = tail call ptr @strtok(ptr noundef nonnull %15, ptr noundef nonnull @.str.12) #31
  %19 = tail call ptr @strtok(ptr noundef null, ptr noundef nonnull @.str.12) #31
  %.not22 = icmp eq ptr %18, null
  br i1 %.not22, label %.outer._crit_edge, label %.lr.ph.split

.lr.ph.split:                                     ; preds = %17, %.outer
  %.016.ph24 = phi ptr [ %29, %.outer ], [ %19, %17 ]
  %.017.ph23 = phi ptr [ %28, %.outer ], [ %18, %17 ]
  %20 = tail call i32 @Abc_NamStrFind(ptr noundef %1, ptr noundef nonnull %.017.ph23) #31
  %21 = icmp slt i32 %20, 1
  br i1 %21, label %.lr.ph21, label %.outer

.lr.ph21:                                         ; preds = %.lr.ph.split, %.lr.ph21
  %22 = tail call i32 (ptr, ...) @printf(ptr noundef nonnull dereferenceable(1) @.str.13, ptr noundef nonnull %.017.ph23)
  %23 = tail call i32 @Abc_NamStrFind(ptr noundef %1, ptr noundef nonnull %.017.ph23) #31
  %24 = icmp slt i32 %23, 1
  br i1 %24, label %.lr.ph21, label %.outer

.outer:                                           ; preds = %.lr.ph21, %.lr.ph.split
  %.us-phi = phi i32 [ %20, %.lr.ph.split ], [ %23, %.lr.ph21 ]
  %25 = tail call i32 @atoi(ptr noundef %.016.ph24) #32
  %26 = zext nneg i32 %.us-phi to i64
  %27 = getelementptr inbounds nuw i32, ptr %.val, i64 %26
  store i32 %25, ptr %27, align 4
  %28 = tail call ptr @strtok(ptr noundef null, ptr noundef nonnull @.str.14) #31
  %29 = tail call ptr @strtok(ptr noundef null, ptr noundef nonnull @.str.14) #31
  %.not = icmp eq ptr %28, null
  br i1 %.not, label %.outer._crit_edge, label %.lr.ph.split, !llvm.loop !34

.outer._crit_edge:                                ; preds = %.outer, %17
  tail call void @free(ptr noundef %15) #31
  br label %30

30:                                               ; preds = %Vec_IntStartFull.exit, %.outer._crit_edge
  %.0 = phi ptr [ %4, %.outer._crit_edge ], [ null, %Vec_IntStartFull.exit ]
  ret ptr %.0
}